target datalayout = "e-m:e-p270:32:32-p271:32:32-p272:64:64-i64:64-i128:128-f80:128-n8:16:32:64-S128"
target triple = "x86_64-pc-linux-gnu"

%"class.cv::FileNode" = type { ptr, i64, i64 }

; Function Attrs: inlinehint mustprogress nounwind uwtable
define internal noundef i32 @_ZN2cvL7readIntEPKh(ptr noundef %0) #7 {
  %2 = alloca ptr, align 8
  %3 = alloca i32, align 4
  store ptr %0, ptr %2, align 8, !tbaa !3
  call void @llvm.lifetime.start.p0(i64 4, ptr %3) #3
  %4 = load ptr, ptr %2, align 8, !tbaa !3
  call void @llvm.memcpy.p0.p0.i64(ptr align 4 %3, ptr align 1 %4, i64 4, i1 false)
  %5 = load i32, ptr %3, align 4, !tbaa !11
  call void @llvm.lifetime.end.p0(i64 4, ptr %3) #3
  ret i32 %5
}

; Function Attrs: mustprogress uwtable
define noundef ptr @_ZNK2cv8FileNode3ptrEv(ptr noundef nonnull align 8 dereferenceable(24) %0) #4 align 2 {
  %2 = alloca ptr, align 8
  store ptr %0, ptr %2, align 8, !tbaa !212
  %3 = load ptr, ptr %2, align 8
  %4 = getelementptr inbounds nuw %"class.cv::FileNode", ptr %3, i32 0, i32 0
  %5 = load ptr, ptr %4, align 8, !tbaa !243
  %6 = icmp ne ptr %5, null
  br i1 %6, label %8, label %7

7:                                                ; preds = %1
  br label %16

8:                                                ; preds = %1
  %9 = getelementptr inbounds nuw %"class.cv::FileNode", ptr %3, i32 0, i32 0
  %10 = load ptr, ptr %9, align 8, !tbaa !243
  %11 = getelementptr inbounds nuw %"class.cv::FileNode", ptr %3, i32 0, i32 1
  %12 = load i64, ptr %11, align 8, !tbaa !213
  %13 = getelementptr inbounds nuw %"class.cv::FileNode", ptr %3, i32 0, i32 2
  %14 = load i64, ptr %13, align 8, !tbaa !215
  %15 = call noundef ptr @_ZNK2cv11FileStorage4Impl10getNodePtrEmm(ptr noundef nonnull align 8 dereferenceable(700) %10, i64 noundef %12, i64 noundef %14)
  br label %16

16:                                               ; preds = %8, %7
  %17 = phi ptr [ null, %7 ], [ %15, %8 ]
  ret ptr %17
}

; Function Attrs: mustprogress uwtable
define noundef i64 @_ZNK2cv8FileNode4sizeEv(ptr noundef nonnull align 8 dereferenceable(24) %0) #4 align 2 {
  %2 = alloca i64, align 8
  %3 = alloca ptr, align 8
  %4 = alloca ptr, align 8
  %5 = alloca i32, align 4
  %6 = alloca i32, align 4
  %7 = alloca i32, align 4
  store ptr %0, ptr %3, align 8, !tbaa !212
  %8 = load ptr, ptr %3, align 8
  call void @llvm.lifetime.start.p0(i64 8, ptr %4) #3
  %9 = call noundef ptr @_ZNK2cv8FileNode3ptrEv(ptr noundef nonnull align 8 dereferenceable(24) %8)
  store ptr %9, ptr %4, align 8, !tbaa !3
  %10 = load ptr, ptr %4, align 8, !tbaa !3
  %11 = icmp ne ptr %10, null
  br i1 %11, label %13, label %12

12:                                               ; preds = %1
  store i64 0, ptr %2, align 8
  store i32 1, ptr %5, align 4
  br label %41

13:                                               ; preds = %1
  call void @llvm.lifetime.start.p0(i64 4, ptr %6) #3
  %14 = load ptr, ptr %4, align 8, !tbaa !3
  %15 = load i8, ptr %14, align 1, !tbaa !10
  %16 = zext i8 %15 to i32
  store i32 %16, ptr %6, align 4, !tbaa !11
  call void @llvm.lifetime.start.p0(i64 4, ptr %7) #3
  %17 = load i32, ptr %6, align 4, !tbaa !11
  %18 = and i32 %17, 7
  store i32 %18, ptr %7, align 4, !tbaa !11
  %19 = load i32, ptr %7, align 4, !tbaa !11
  %20 = icmp eq i32 %19, 5
  br i1 %20, label %24, label %21

21:                                               ; preds = %13
  %22 = load i32, ptr %7, align 4, !tbaa !11
  %23 = icmp eq i32 %22, 4
  br i1 %23, label %24, label %36

24:                                               ; preds = %21, %13
  %25 = load i32, ptr %6, align 4, !tbaa !11
  %26 = and i32 %25, 32
  %27 = icmp ne i32 %26, 0
  br i1 %27, label %28, label %31

28:                                               ; preds = %24
  %29 = load ptr, ptr %4, align 8, !tbaa !3
  %30 = getelementptr inbounds i8, ptr %29, i64 4
  store ptr %30, ptr %4, align 8, !tbaa !3
  br label %31

31:                                               ; preds = %28, %24
  %32 = load ptr, ptr %4, align 8, !tbaa !3
  %33 = getelementptr inbounds i8, ptr %32, i64 5
  %34 = call noundef i32 @_ZN2cvL7readIntEPKh(ptr noundef %33)
  %35 = zext i32 %34 to i64
  store i64 %35, ptr %2, align 8
  store i32 1, ptr %5, align 4
  br label %40

36:                                               ; preds = %21
  %37 = load i32, ptr %7, align 4, !tbaa !11
  %38 = icmp ne i32 %37, 0
  %39 = zext i1 %38 to i64
  store i64 %39, ptr %2, align 8
  store i32 1, ptr %5, align 4
  br label %40

40:                                               ; preds = %36, %31
  call void @llvm.lifetime.end.p0(i64 4, ptr %7) #3
  call void @llvm.lifetime.end.p0(i64 4, ptr %6) #3
  br label %41

41:                                               ; preds = %40, %12
  call void @llvm.lifetime.end.p0(i64 8, ptr %4) #3
  %42 = load i64, ptr %2, align 8
  ret i64 %42
}