; Function Attrs: mustprogress uwtable
define noundef range(i64 0, 4294967296) i64 @_ZNK2cv8FileNode4sizeEv(ptr noundef nonnull readonly align 8 captures(none) dereferenceable(24) %0) local_unnamed_addr #13 align 2 {
  %2 = load ptr, ptr %0, align 8, !tbaa !250
  %.not.i = icmp eq ptr %2, null
  br i1 %.not.i, label %_ZNK2cv8FileNode3ptrEv.exit.thread, label %_ZNK2cv8FileNode3ptrEv.exit

_ZNK2cv8FileNode3ptrEv.exit:                      ; preds = %1
  %3 = getelementptr inbounds nuw i8, ptr %0, i64 8
  %4 = load i64, ptr %3, align 8, !tbaa !253
  %5 = getelementptr inbounds nuw i8, ptr %0, i64 16
  %6 = load i64, ptr %5, align 8, !tbaa !254
  %7 = tail call noundef ptr @_ZNK2cv11FileStorage4Impl10getNodePtrEmm(ptr noundef nonnull align 8 dereferenceable(700) %2, i64 noundef %4, i64 noundef %6)
  %.not = icmp eq ptr %7, null
  br i1 %.not, label %_ZNK2cv8FileNode3ptrEv.exit.thread, label %8

8:                                                ; preds = %_ZNK2cv8FileNode3ptrEv.exit
  %9 = load i8, ptr %7, align 1, !tbaa !5
  %10 = zext i8 %9 to i32
  %11 = and i32 %10, 6
  %or.cond = icmp eq i32 %11, 4
  br i1 %or.cond, label %12, label %17

12:                                               ; preds = %8
  %13 = lshr i32 %10, 3
  %14 = and i32 %13, 4
  %spec.select.idx = zext nneg i32 %14 to i64
  %spec.select = getelementptr inbounds nuw i8, ptr %7, i64 %spec.select.idx
  %15 = getelementptr inbounds nuw i8, ptr %spec.select, i64 5
  %.val = load i32, ptr %15, align 1
  %16 = zext i32 %.val to i64
  br label %_ZNK2cv8FileNode3ptrEv.exit.thread

17:                                               ; preds = %8
  %18 = and i32 %10, 7
  %19 = icmp ne i32 %18, 0
  %20 = zext i1 %19 to i64
  br label %_ZNK2cv8FileNode3ptrEv.exit.thread

_ZNK2cv8FileNode3ptrEv.exit.thread:               ; preds = %1, %12, %17, %_ZNK2cv8FileNode3ptrEv.exit
  %.0 = phi i64 [ 0, %_ZNK2cv8FileNode3ptrEv.exit ], [ %16, %12 ], [ %20, %17 ], [ 0, %1 ]
  ret i64 %.0
}